target datalayout = "e-m:e-p270:32:32-p271:32:32-p272:64:64-i64:64-i128:128-f80:128-n8:16:32:64-S128"
target triple = "x86_64-pc-linux-gnu"

; Function Attrs: nounwind uwtable
define internal i32 @match(ptr noundef %0, ptr noundef %1) #0 {
  %3 = alloca i32, align 4
  %4 = alloca ptr, align 8
  %5 = alloca ptr, align 8
  %6 = alloca i32, align 4
  %7 = alloca ptr, align 8
  %8 = alloca ptr, align 8
  %9 = alloca ptr, align 8
  %10 = alloca ptr, align 8
  %11 = alloca i64, align 8
  %12 = alloca i32, align 4
  store ptr %0, ptr %4, align 8, !tbaa !3
  store ptr %1, ptr %5, align 8, !tbaa !3
  call void @llvm.lifetime.start.p0(i64 4, ptr %6) #13
  store i32 -1, ptr %6, align 4, !tbaa !10
  call void @llvm.lifetime.start.p0(i64 8, ptr %7) #13
  call void @llvm.lifetime.start.p0(i64 8, ptr %8) #13
  call void @llvm.lifetime.start.p0(i64 8, ptr %9) #13
  store ptr null, ptr %9, align 8, !tbaa !3
  call void @llvm.lifetime.start.p0(i64 8, ptr %10) #13
  store ptr null, ptr %10, align 8, !tbaa !3
  call void @llvm.lifetime.start.p0(i64 8, ptr %11) #13
  %13 = load ptr, ptr %4, align 8, !tbaa !3
  %14 = load ptr, ptr %5, align 8, !tbaa !3
  %15 = call i32 @strcmp(ptr noundef %13, ptr noundef %14) #16
  %16 = icmp eq i32 0, %15
  br i1 %16, label %17, label %18

17:                                               ; preds = %2
  store i32 0, ptr %3, align 4
  store i32 1, ptr %12, align 4
  br label %78

18:                                               ; preds = %2
  %19 = load ptr, ptr %4, align 8, !tbaa !3
  %20 = call ptr @strchr(ptr noundef %19, i32 noundef 42) #16
  %21 = icmp ne ptr null, %20
  br i1 %21, label %26, label %22

22:                                               ; preds = %18
  %23 = load ptr, ptr %5, align 8, !tbaa !3
  %24 = call ptr @strchr(ptr noundef %23, i32 noundef 42) #16
  %25 = icmp ne ptr null, %24
  br i1 %25, label %26, label %77

26:                                               ; preds = %22, %18
  %27 = load ptr, ptr %4, align 8, !tbaa !3
  %28 = call noalias ptr @strdup(ptr noundef %27) #13
  store ptr %28, ptr %9, align 8, !tbaa !3
  %29 = load ptr, ptr %9, align 8, !tbaa !3
  %30 = icmp eq ptr null, %29
  br i1 %30, label %31, label %32

31:                                               ; preds = %26
  store i32 -29, ptr %3, align 4
  store i32 1, ptr %12, align 4
  br label %78

32:                                               ; preds = %26
  %33 = load ptr, ptr %5, align 8, !tbaa !3
  %34 = call noalias ptr @strdup(ptr noundef %33) #13
  store ptr %34, ptr %10, align 8, !tbaa !3
  %35 = load ptr, ptr %10, align 8, !tbaa !3
  %36 = icmp eq ptr null, %35
  br i1 %36, label %37, label %39

37:                                               ; preds = %32
  %38 = load ptr, ptr %9, align 8, !tbaa !3
  call void @free(ptr noundef %38) #13
  store i32 -29, ptr %3, align 4
  store i32 1, ptr %12, align 4
  br label %78

39:                                               ; preds = %32
  %40 = load ptr, ptr %9, align 8, !tbaa !3
  %41 = call ptr @strchr(ptr noundef %40, i32 noundef 42) #16
  store ptr %41, ptr %7, align 8, !tbaa !3
  %42 = load ptr, ptr %10, align 8, !tbaa !3
  %43 = call ptr @strchr(ptr noundef %42, i32 noundef 42) #16
  store ptr %43, ptr %8, align 8, !tbaa !3
  %44 = load ptr, ptr %7, align 8, !tbaa !3
  %45 = icmp ne ptr null, %44
  br i1 %45, label %46, label %48

46:                                               ; preds = %39
  %47 = load ptr, ptr %7, align 8, !tbaa !3
  store i8 0, ptr %47, align 1, !tbaa !93
  br label %48

48:                                               ; preds = %46, %39
  %49 = load ptr, ptr %8, align 8, !tbaa !3
  %50 = icmp ne ptr null, %49
  br i1 %50, label %51, label %53

51:                                               ; preds = %48
  %52 = load ptr, ptr %8, align 8, !tbaa !3
  store i8 0, ptr %52, align 1, !tbaa !93
  br label %53

53:                                               ; preds = %51, %48
  %54 = load ptr, ptr %9, align 8, !tbaa !3
  %55 = call i64 @strlen(ptr noundef %54) #16
  store i64 %55, ptr %11, align 8, !tbaa !8
  %56 = load ptr, ptr %10, align 8, !tbaa !3
  %57 = call i64 @strlen(ptr noundef %56) #16
  %58 = load i64, ptr %11, align 8, !tbaa !8
  %59 = icmp ult i64 %57, %58
  br i1 %59, label %60, label %63

60:                                               ; preds = %53
  %61 = load ptr, ptr %10, align 8, !tbaa !3
  %62 = call i64 @strlen(ptr noundef %61) #16
  store i64 %62, ptr %11, align 8, !tbaa !8
  br label %63

63:                                               ; preds = %60, %53
  %64 = load i64, ptr %11, align 8, !tbaa !8
  %65 = icmp eq i64 0, %64
  br i1 %65, label %72, label %66

66:                                               ; preds = %63
  %67 = load ptr, ptr %9, align 8, !tbaa !3
  %68 = load ptr, ptr %10, align 8, !tbaa !3
  %69 = load i64, ptr %11, align 8, !tbaa !8
  %70 = call i32 @strncmp(ptr noundef %67, ptr noundef %68, i64 noundef %69) #16
  %71 = icmp eq i32 0, %70
  br i1 %71, label %72, label %73

72:                                               ; preds = %66, %63
  store i32 0, ptr %6, align 4, !tbaa !10
  br label %73

73:                                               ; preds = %72, %66
  %74 = load ptr, ptr %9, align 8, !tbaa !3
  call void @free(ptr noundef %74) #13
  %75 = load ptr, ptr %10, align 8, !tbaa !3
  call void @free(ptr noundef %75) #13
  %76 = load i32, ptr %6, align 4, !tbaa !10
  store i32 %76, ptr %3, align 4
  store i32 1, ptr %12, align 4
  br label %78

77:                                               ; preds = %22
  store i32 -1, ptr %3, align 4
  store i32 1, ptr %12, align 4
  br label %78

78:                                               ; preds = %77, %73, %37, %31, %17
  call void @llvm.lifetime.end.p0(i64 8, ptr %11) #13
  call void @llvm.lifetime.end.p0(i64 8, ptr %10) #13
  call void @llvm.lifetime.end.p0(i64 8, ptr %9) #13
  call void @llvm.lifetime.end.p0(i64 8, ptr %8) #13
  call void @llvm.lifetime.end.p0(i64 8, ptr %7) #13
  call void @llvm.lifetime.end.p0(i64 4, ptr %6) #13
  %79 = load i32, ptr %3, align 4
  ret i32 %79
}