; Function Attrs: mustprogress nounwind willreturn uwtable
define internal fastcc range(i32 -29, 1) i32 @match(ptr noundef readonly %0, ptr noundef readonly %1) unnamed_addr #6 {
  %3 = tail call i32 @strcmp(ptr noundef nonnull dereferenceable(1) %0, ptr noundef nonnull dereferenceable(1) %1) #23
  %4 = icmp eq i32 %3, 0
  br i1 %4, label %30, label %5

5:                                                ; preds = %2
  %6 = tail call ptr @strchr(ptr noundef nonnull dereferenceable(1) %0, i32 noundef 42) #23
  %.not = icmp eq ptr %6, null
  br i1 %.not, label %7, label %9

7:                                                ; preds = %5
  %8 = tail call ptr @strchr(ptr noundef nonnull dereferenceable(1) %1, i32 noundef 42) #23
  %.not34 = icmp eq ptr %8, null
  br i1 %.not34, label %30, label %9

9:                                                ; preds = %7, %5
  %10 = tail call noalias ptr @strdup(ptr noundef nonnull %0) #18
  %11 = icmp eq ptr %10, null
  br i1 %11, label %30, label %12

12:                                               ; preds = %9
  %13 = tail call noalias ptr @strdup(ptr noundef nonnull %1) #18
  %14 = icmp eq ptr %13, null
  br i1 %14, label %.sink.split, label %15

15:                                               ; preds = %12
  %16 = tail call ptr @strchr(ptr noundef nonnull dereferenceable(1) %10, i32 noundef 42) #23
  %17 = tail call ptr @strchr(ptr noundef nonnull dereferenceable(1) %13, i32 noundef 42) #23
  %.not35 = icmp eq ptr %16, null
  br i1 %.not35, label %19, label %18

18:                                               ; preds = %15
  store i8 0, ptr %16, align 1, !tbaa !70
  br label %19

19:                                               ; preds = %18, %15
  %.not36 = icmp eq ptr %17, null
  br i1 %.not36, label %21, label %20

20:                                               ; preds = %19
  store i8 0, ptr %17, align 1, !tbaa !70
  br label %21

21:                                               ; preds = %20, %19
  %22 = tail call i64 @strlen(ptr noundef nonnull dereferenceable(1) %10) #23
  %23 = tail call i64 @strlen(ptr noundef nonnull dereferenceable(1) %13) #23
  %spec.select = tail call i64 @llvm.umin.i64(i64 %23, i64 %22)
  %24 = icmp eq i64 %spec.select, 0
  br i1 %24, label %28, label %25

25:                                               ; preds = %21
  %26 = tail call i32 @strncmp(ptr noundef nonnull %10, ptr noundef nonnull %13, i64 noundef %spec.select) #23
  %27 = icmp eq i32 %26, 0
  br i1 %27, label %28, label %29

28:                                               ; preds = %25, %21
  br label %29

29:                                               ; preds = %28, %25
  %.027 = phi i32 [ 0, %28 ], [ -1, %25 ]
  tail call void @free(ptr noundef nonnull %10) #18
  br label %.sink.split

.sink.split:                                      ; preds = %12, %29
  %.sink = phi ptr [ %13, %29 ], [ %10, %12 ]
  %.026.ph = phi i32 [ %.027, %29 ], [ -29, %12 ]
  tail call void @free(ptr noundef nonnull %.sink) #18
  br label %30

30:                                               ; preds = %.sink.split, %7, %9, %2
  %.026 = phi i32 [ 0, %2 ], [ -29, %9 ], [ -1, %7 ], [ %.026.ph, %.sink.split ]
  ret i32 %.026
}